; Function Attrs: mustprogress uwtable
define hidden noundef zeroext i1 @_ZN7testing8internal16BoolFromGTestEnvEPKcb(ptr noundef %0, i1 noundef zeroext %1) local_unnamed_addr #4 personality ptr @__gxx_personality_v0 {
  %3 = alloca %"class.std::__cxx11::basic_string", align 8
  call void @llvm.lifetime.start.p0(i64 32, ptr nonnull %3) #56
  call fastcc void @_ZN7testing8internalL12FlagToEnvVarB5cxx11EPKc(ptr dead_on_unwind noalias writable align 8 %3, ptr noundef %0)
  %4 = load ptr, ptr %3, align 8, !tbaa !3
  %5 = call noundef ptr @getenv(ptr noundef %4) #56
  %6 = icmp eq ptr %5, null
  br i1 %6, label %.tail, label %sub_0

sub_0:                                            ; preds = %2
  %7 = load i8, ptr %5, align 1
  %.not = icmp eq i8 %7, 48
  br i1 %.not, label %sub_1, label %.tail

sub_1:                                            ; preds = %sub_0
  %8 = getelementptr inbounds nuw i8, ptr %5, i64 1
  %9 = load i8, ptr %8, align 1
  %10 = icmp ne i8 %9, 0
  br label %.tail

.tail:                                            ; preds = %sub_1, %sub_0, %2
  %11 = phi i1 [ %1, %2 ], [ true, %sub_0 ], [ %10, %sub_1 ]
  %12 = getelementptr inbounds nuw i8, ptr %3, i64 16
  %13 = icmp eq ptr %4, %12
  br i1 %13, label %_ZNKSt7__cxx1112basic_stringIcSt11char_traitsIcESaIcEE11_M_is_localEv.exit.thread.i.i, label %_ZNKSt7__cxx1112basic_stringIcSt11char_traitsIcESaIcEE11_M_is_localEv.exit.i.i

_ZNKSt7__cxx1112basic_stringIcSt11char_traitsIcESaIcEE11_M_is_localEv.exit.thread.i.i: ; preds = %.tail
  %14 = getelementptr inbounds nuw i8, ptr %3, i64 8
  %15 = load i64, ptr %14, align 8, !tbaa !11
  %16 = icmp ult i64 %15, 16
  call void @llvm.assume(i1 %16)
  br label %_ZNSt7__cxx1112basic_stringIcSt11char_traitsIcESaIcEED2Ev.exit

_ZNKSt7__cxx1112basic_stringIcSt11char_traitsIcESaIcEE11_M_is_localEv.exit.i.i: ; preds = %.tail
  call void @_ZdlPv(ptr noundef %4) #57
  br label %_ZNSt7__cxx1112basic_stringIcSt11char_traitsIcESaIcEED2Ev.exit

_ZNSt7__cxx1112basic_stringIcSt11char_traitsIcESaIcEED2Ev.exit: ; preds = %_ZNKSt7__cxx1112basic_stringIcSt11char_traitsIcESaIcEE11_M_is_localEv.exit.thread.i.i, %_ZNKSt7__cxx1112basic_stringIcSt11char_traitsIcESaIcEE11_M_is_localEv.exit.i.i
  call void @llvm.lifetime.end.p0(i64 32, ptr nonnull %3) #56
  ret i1 %11
}